(lp0
(lp1
I48344
aI88051
aI52928
aI75269
aI52051
aI67681
aI56689
aI77835
aI60508
aI46403
aa(lp2
I90529
aI202210
aI92222
aI108675
aI95475
aI175869
aI120907
aI107176
aI120513
aI143524
aa.(lp0
(lp1
I204800
aI4668
aI4624
aI4899
aI204800
aI4791
aI204800
aI4789
aI4647
aI4621
aa(lp2
I409600
aI409600
aI409600
aI409600
aI409600
aI409600
aI409600
aI409600
aI409600
aI409600
aa.