(lp0
(lp1
I63
aI52
aI59
aI45
aI66
aI80
aI61
aI53
aI88
aI62
aa(lp2
I185
aI159
aI171
aI137
aI104
aI143
aI121
aI107
aI167
aI132
aa(lp3
I411
aI331
aI493
aI291
aI417
aI367
aI328
aI436
aI408
aI309
aa(lp4
I930
aI585
aI820
aI741
aI348
aI779
aI602
aI576
aI927
aI910
aa(lp5
I2122
aI1813
aI1748
aI2420
aI1993
aI1812
aI2038
aI1476
aI1588
aI2329
aa(lp6
I3116
aI3089
aI3894
aI3174
aI4014
aI2912
aI4628
aI3891
aI3146
aI2965
aa(lp7
I6239
aI5728
aI8671
aI8411
aI5574
aI5636
aI5413
aI5356
aI5598
aI7223
aa(lp8
I19504
aI18574
aI15483
aI19439
aI14643
aI15835
aI13749
aI17218
aI12703
aI15885
aa(lp9
I36644
aI36865
aI26655
aI33464
aI27443
aI31275
aI32119
aI25651
aI25570
aI34765
aa.(lp0
(lp1
I25
aI25
aI25
aI25
aI25
aI25
aI25
aI25
aI25
aI25
aa(lp2
I53
aI54
aI54
aI54
aI54
aI54
aI54
aI54
aI54
aI54
aa(lp3
I82
aI84
aI181
aI82
aI82
aI114
aI84
aI106
aI1600
aI83
aa(lp4
I3200
aI129
aI3200
aI3200
aI3200
aI161
aI3200
aI3200
aI3200
aI133
aa(lp5
I6400
aI217
aI6400
aI276
aI221
aI276
aI6400
aI305
aI6400
aI269
aa(lp6
I12800
aI12800
aI417
aI12800
aI12800
aI12800
aI12800
aI12800
aI12800
aI12800
aa(lp7
I25600
aI25600
aI25600
aI25600
aI25600
aI25600
aI25600
aI25600
aI25600
aI25600
aa(lp8
I51200
aI51200
aI51200
aI51200
aI51200
aI51200
aI51200
aI51200
aI51200
aI51200
aa(lp9
I102400
aI102400
aI102400
aI102400
aI102400
aI102400
aI102400
aI102400
aI102400
aI102400
aa.